target datalayout = "e-m:e-p270:32:32-p271:32:32-p272:64:64-i64:64-i128:128-f80:128-n8:16:32:64-S128"
target triple = "x86_64-pc-linux-gnu"

%class.rational = type { %class.mpq }
%class.mpq = type { %class.mpz, %class.mpz }
%class.mpz = type { i32, i8, ptr }
%"struct.opt::model_based_opt::def" = type { i32, i32 }
%"struct.opt::model_based_opt::div_def" = type { %"struct.opt::model_based_opt::def", ptr, %class.rational }

@_ZN8rational13g_mpq_managerE = external global ptr, align 8

; Function Attrs: inlinehint mustprogress nounwind uwtable
define linkonce_odr hidden noundef zeroext i1 @_ZNK3mpz8is_smallEv(ptr noundef nonnull align 8 dereferenceable(16) %0) #8 comdat align 2 {
  %2 = alloca ptr, align 8
  store ptr %0, ptr %2, align 8, !tbaa !139
  %3 = load ptr, ptr %2, align 8
  %4 = getelementptr inbounds nuw %class.mpz, ptr %3, i32 0, i32 1
  %5 = load i8, ptr %4, align 4
  %6 = and i8 %5, 1
  %7 = zext i8 %6 to i32
  %8 = icmp eq i32 %7, 0
  ret i1 %8
}

; Function Attrs: mustprogress nounwind uwtable
define linkonce_odr hidden void @_ZN3mpz3setEi(ptr noundef nonnull align 8 dereferenceable(16) %0, i32 noundef %1) #7 comdat align 2 {
  %3 = alloca ptr, align 8
  %4 = alloca i32, align 4
  store ptr %0, ptr %3, align 8, !tbaa !139
  store i32 %1, ptr %4, align 4, !tbaa !16
  %5 = load ptr, ptr %3, align 8
  %6 = load i32, ptr %4, align 4, !tbaa !16
  %7 = getelementptr inbounds nuw %class.mpz, ptr %5, i32 0, i32 0
  store i32 %6, ptr %7, align 8, !tbaa !141
  %8 = getelementptr inbounds nuw %class.mpz, ptr %5, i32 0, i32 1
  %9 = load i8, ptr %8, align 4
  %10 = and i8 %9, -2
  %11 = or i8 %10, 0
  store i8 %11, ptr %8, align 4
  ret void
}

; Function Attrs: inlinehint mustprogress nounwind uwtable
define linkonce_odr hidden noundef i32 @_ZNK3mpz5valueEv(ptr noundef nonnull align 8 dereferenceable(16) %0) #8 comdat align 2 {
  %2 = alloca ptr, align 8
  store ptr %0, ptr %2, align 8, !tbaa !139
  %3 = load ptr, ptr %2, align 8
  %4 = getelementptr inbounds nuw %class.mpz, ptr %3, i32 0, i32 0
  %5 = load i32, ptr %4, align 8, !tbaa !141
  ret i32 %5
}

; Function Attrs: mustprogress uwtable
define linkonce_odr hidden noundef zeroext i1 @_ZN11mpz_managerILb1EE8is_smallERK3mpz(ptr noundef nonnull align 8 dereferenceable(16) %0) #4 comdat align 2 {
  %2 = alloca ptr, align 8
  store ptr %0, ptr %2, align 8, !tbaa !139
  %3 = load ptr, ptr %2, align 8, !tbaa !139
  %4 = call noundef zeroext i1 @_ZNK3mpz8is_smallEv(ptr noundef nonnull align 8 dereferenceable(16) %3)
  ret i1 %4
}

; Function Attrs: mustprogress uwtable
define linkonce_odr hidden void @_ZN11mpz_managerILb1EE3setER3mpzRKS1_(ptr noundef nonnull align 8 dereferenceable(600) %0, ptr noundef nonnull align 8 dereferenceable(16) %1, ptr noundef nonnull align 8 dereferenceable(16) %2) #4 comdat align 2 {
  %4 = alloca ptr, align 8
  %5 = alloca ptr, align 8
  %6 = alloca ptr, align 8
  store ptr %0, ptr %4, align 8, !tbaa !143
  store ptr %1, ptr %5, align 8, !tbaa !139
  store ptr %2, ptr %6, align 8, !tbaa !139
  %7 = load ptr, ptr %4, align 8
  %8 = load ptr, ptr %6, align 8, !tbaa !139
  %9 = call noundef zeroext i1 @_ZN11mpz_managerILb1EE8is_smallERK3mpz(ptr noundef nonnull align 8 dereferenceable(16) %8)
  br i1 %9, label %10, label %14

10:                                               ; preds = %3
  %11 = load ptr, ptr %5, align 8, !tbaa !139
  %12 = load ptr, ptr %6, align 8, !tbaa !139
  %13 = call noundef i32 @_ZNK3mpz5valueEv(ptr noundef nonnull align 8 dereferenceable(16) %12)
  call void @_ZN3mpz3setEi(ptr noundef nonnull align 8 dereferenceable(16) %11, i32 noundef %13)
  br label %17

14:                                               ; preds = %3
  %15 = load ptr, ptr %5, align 8, !tbaa !139
  %16 = load ptr, ptr %6, align 8, !tbaa !139
  call void @_ZN11mpz_managerILb1EE7big_setER3mpzRKS1_(ptr noundef nonnull align 8 dereferenceable(600) %7, ptr noundef nonnull align 8 dereferenceable(16) %15, ptr noundef nonnull align 8 dereferenceable(16) %16)
  br label %17

17:                                               ; preds = %14, %10
  ret void
}

; Function Attrs: mustprogress uwtable
define linkonce_odr hidden void @_ZN11mpq_managerILb1EE3setER3mpzRKS1_(ptr noundef nonnull align 8 dereferenceable(728) %0, ptr noundef nonnull align 8 dereferenceable(16) %1, ptr noundef nonnull align 8 dereferenceable(16) %2) #4 comdat align 2 {
  %4 = alloca ptr, align 8
  %5 = alloca ptr, align 8
  %6 = alloca ptr, align 8
  store ptr %0, ptr %4, align 8, !tbaa !40
  store ptr %1, ptr %5, align 8, !tbaa !139
  store ptr %2, ptr %6, align 8, !tbaa !139
  %7 = load ptr, ptr %4, align 8
  %8 = load ptr, ptr %5, align 8, !tbaa !139
  %9 = load ptr, ptr %6, align 8, !tbaa !139
  call void @_ZN11mpz_managerILb1EE3setER3mpzRKS1_(ptr noundef nonnull align 8 dereferenceable(600) %7, ptr noundef nonnull align 8 dereferenceable(16) %8, ptr noundef nonnull align 8 dereferenceable(16) %9)
  ret void
}

; Function Attrs: mustprogress nounwind uwtable
define linkonce_odr hidden void @_ZN3mpzC2Ei(ptr noundef nonnull align 8 dereferenceable(16) %0, i32 noundef %1) unnamed_addr #7 comdat align 2 {
  %3 = alloca ptr, align 8
  %4 = alloca i32, align 4
  store ptr %0, ptr %3, align 8, !tbaa !139
  store i32 %1, ptr %4, align 4, !tbaa !16
  %5 = load ptr, ptr %3, align 8
  %6 = getelementptr inbounds nuw %class.mpz, ptr %5, i32 0, i32 0
  %7 = load i32, ptr %4, align 4, !tbaa !16
  store i32 %7, ptr %6, align 8, !tbaa !141
  %8 = getelementptr inbounds nuw %class.mpz, ptr %5, i32 0, i32 1
  %9 = load i8, ptr %8, align 4
  %10 = and i8 %9, -2
  %11 = or i8 %10, 0
  store i8 %11, ptr %8, align 4
  %12 = getelementptr inbounds nuw %class.mpz, ptr %5, i32 0, i32 1
  %13 = load i8, ptr %12, align 4
  %14 = and i8 %13, -3
  %15 = or i8 %14, 0
  store i8 %15, ptr %12, align 4
  %16 = getelementptr inbounds nuw %class.mpz, ptr %5, i32 0, i32 2
  store ptr null, ptr %16, align 8, !tbaa !142
  ret void
}

; Function Attrs: mustprogress nounwind uwtable
define linkonce_odr hidden void @_ZN3mpzC2Ev(ptr noundef nonnull align 8 dereferenceable(16) %0) unnamed_addr #7 comdat align 2 {
  %2 = alloca ptr, align 8
  store ptr %0, ptr %2, align 8, !tbaa !139
  %3 = load ptr, ptr %2, align 8
  %4 = getelementptr inbounds nuw %class.mpz, ptr %3, i32 0, i32 0
  store i32 0, ptr %4, align 8, !tbaa !141
  %5 = getelementptr inbounds nuw %class.mpz, ptr %3, i32 0, i32 1
  %6 = load i8, ptr %5, align 4
  %7 = and i8 %6, -2
  %8 = or i8 %7, 0
  store i8 %8, ptr %5, align 4
  %9 = getelementptr inbounds nuw %class.mpz, ptr %3, i32 0, i32 1
  %10 = load i8, ptr %9, align 4
  %11 = and i8 %10, -3
  %12 = or i8 %11, 0
  store i8 %12, ptr %9, align 4
  %13 = getelementptr inbounds nuw %class.mpz, ptr %3, i32 0, i32 2
  store ptr null, ptr %13, align 8, !tbaa !142
  ret void
}

; Function Attrs: mustprogress uwtable
define linkonce_odr hidden void @_ZN11mpq_managerILb1EE3setER3mpqRKS1_(ptr noundef nonnull align 8 dereferenceable(728) %0, ptr noundef nonnull align 8 dereferenceable(32) %1, ptr noundef nonnull align 8 dereferenceable(32) %2) #4 comdat align 2 {
  %4 = alloca ptr, align 8
  %5 = alloca ptr, align 8
  %6 = alloca ptr, align 8
  store ptr %0, ptr %4, align 8, !tbaa !40
  store ptr %1, ptr %5, align 8, !tbaa !137
  store ptr %2, ptr %6, align 8, !tbaa !137
  %7 = load ptr, ptr %4, align 8
  %8 = load ptr, ptr %5, align 8, !tbaa !137
  %9 = getelementptr inbounds nuw %class.mpq, ptr %8, i32 0, i32 0
  %10 = load ptr, ptr %6, align 8, !tbaa !137
  %11 = getelementptr inbounds nuw %class.mpq, ptr %10, i32 0, i32 0
  call void @_ZN11mpq_managerILb1EE3setER3mpzRKS1_(ptr noundef nonnull align 8 dereferenceable(728) %7, ptr noundef nonnull align 8 dereferenceable(16) %9, ptr noundef nonnull align 8 dereferenceable(16) %11)
  %12 = load ptr, ptr %5, align 8, !tbaa !137
  %13 = getelementptr inbounds nuw %class.mpq, ptr %12, i32 0, i32 1
  %14 = load ptr, ptr %6, align 8, !tbaa !137
  %15 = getelementptr inbounds nuw %class.mpq, ptr %14, i32 0, i32 1
  call void @_ZN11mpq_managerILb1EE3setER3mpzRKS1_(ptr noundef nonnull align 8 dereferenceable(728) %7, ptr noundef nonnull align 8 dereferenceable(16) %13, ptr noundef nonnull align 8 dereferenceable(16) %15)
  ret void
}

; Function Attrs: mustprogress nounwind uwtable
define linkonce_odr hidden noundef nonnull align 8 dereferenceable(728) ptr @_ZN8rational1mEv() #7 comdat align 2 {
  %1 = load ptr, ptr @_ZN8rational13g_mpq_managerE, align 8, !tbaa !40
  ret ptr %1
}

; Function Attrs: mustprogress uwtable
define linkonce_odr hidden void @_ZN3mpqC2Ev(ptr noundef nonnull align 8 dereferenceable(32) %0) unnamed_addr #4 comdat align 2 {
  %2 = alloca ptr, align 8
  store ptr %0, ptr %2, align 8, !tbaa !137
  %3 = load ptr, ptr %2, align 8
  %4 = getelementptr inbounds nuw %class.mpq, ptr %3, i32 0, i32 0
  call void @_ZN3mpzC2Ev(ptr noundef nonnull align 8 dereferenceable(16) %4)
  %5 = getelementptr inbounds nuw %class.mpq, ptr %3, i32 0, i32 1
  call void @_ZN3mpzC2Ei(ptr noundef nonnull align 8 dereferenceable(16) %5, i32 noundef 1)
  ret void
}

; Function Attrs: mustprogress nounwind uwtable
define linkonce_odr hidden void @_ZN3opt15model_based_opt3def7inc_refEv(ptr noundef nonnull align 4 dereferenceable(8) %0) #7 comdat align 2 {
  %2 = alloca ptr, align 8
  store ptr %0, ptr %2, align 8, !tbaa !35
  %3 = load ptr, ptr %2, align 8
  %4 = getelementptr inbounds nuw %"struct.opt::model_based_opt::def", ptr %3, i32 0, i32 1
  %5 = load i32, ptr %4, align 4, !tbaa !49
  %6 = add i32 %5, 1
  store i32 %6, ptr %4, align 4, !tbaa !49
  ret void
}

; Function Attrs: mustprogress uwtable
define linkonce_odr hidden void @_ZN8rationalC2ERKS_(ptr noundef nonnull align 8 dereferenceable(32) %0, ptr noundef nonnull align 8 dereferenceable(32) %1) unnamed_addr #4 comdat align 2 {
  %3 = alloca ptr, align 8
  %4 = alloca ptr, align 8
  store ptr %0, ptr %3, align 8, !tbaa !37
  store ptr %1, ptr %4, align 8, !tbaa !37
  %5 = load ptr, ptr %3, align 8
  %6 = getelementptr inbounds nuw %class.rational, ptr %5, i32 0, i32 0
  call void @_ZN3mpqC2Ev(ptr noundef nonnull align 8 dereferenceable(32) %6)
  %7 = call noundef nonnull align 8 dereferenceable(728) ptr @_ZN8rational1mEv()
  %8 = getelementptr inbounds nuw %class.rational, ptr %5, i32 0, i32 0
  %9 = load ptr, ptr %4, align 8, !tbaa !37
  %10 = getelementptr inbounds nuw %class.rational, ptr %9, i32 0, i32 0
  call void @_ZN11mpq_managerILb1EE3setER3mpqRKS1_(ptr noundef nonnull align 8 dereferenceable(728) %7, ptr noundef nonnull align 8 dereferenceable(32) %8, ptr noundef nonnull align 8 dereferenceable(32) %10)
  ret void
}

; Function Attrs: mustprogress nounwind uwtable
define linkonce_odr hidden void @_ZN3opt15model_based_opt3defC2Ev(ptr noundef nonnull align 4 dereferenceable(8) %0) unnamed_addr #7 comdat align 2 {
  %2 = alloca ptr, align 8
  store ptr %0, ptr %2, align 8, !tbaa !35
  %3 = load ptr, ptr %2, align 8
  %4 = getelementptr inbounds nuw %"struct.opt::model_based_opt::def", ptr %3, i32 0, i32 1
  store i32 0, ptr %4, align 4, !tbaa !49
  ret void
}

; Function Attrs: mustprogress uwtable
define linkonce_odr hidden void @_ZN3opt15model_based_opt7div_defC2EPNS0_3defERK8rational(ptr noundef nonnull align 8 dereferenceable(48) %0, ptr noundef %1, ptr noundef nonnull align 8 dereferenceable(32) %2) unnamed_addr #4 comdat align 2 {
  %4 = alloca ptr, align 8
  %5 = alloca ptr, align 8
  %6 = alloca ptr, align 8
  store ptr %0, ptr %4, align 8, !tbaa !60
  store ptr %1, ptr %5, align 8, !tbaa !35
  store ptr %2, ptr %6, align 8, !tbaa !37
  %7 = load ptr, ptr %4, align 8
  call void @_ZN3opt15model_based_opt3defC2Ev(ptr noundef nonnull align 4 dereferenceable(8) %7) #3
  %8 = getelementptr inbounds nuw %"struct.opt::model_based_opt::div_def", ptr %7, i32 0, i32 1
  %9 = load ptr, ptr %5, align 8, !tbaa !35
  store ptr %9, ptr %8, align 8, !tbaa !62
  %10 = getelementptr inbounds nuw %"struct.opt::model_based_opt::div_def", ptr %7, i32 0, i32 2
  %11 = load ptr, ptr %6, align 8, !tbaa !37
  call void @_ZN8rationalC2ERKS_(ptr noundef nonnull align 8 dereferenceable(32) %10, ptr noundef nonnull align 8 dereferenceable(32) %11)
  %12 = getelementptr inbounds nuw %"struct.opt::model_based_opt::def", ptr %7, i32 0, i32 0
  store i32 2, ptr %12, align 8, !tbaa !44
  %13 = load ptr, ptr %5, align 8, !tbaa !35
  call void @_ZN3opt15model_based_opt3def7inc_refEv(ptr noundef nonnull align 4 dereferenceable(8) %13)
  ret void
}

; Function Attrs: mustprogress uwtable
define hidden noundef ptr @_ZN3opt15model_based_opt3defdvERK8rational(ptr noundef nonnull align 4 dereferenceable(8) %0, ptr noundef nonnull align 8 dereferenceable(32) %1) #4 align 2 {
  %3 = alloca ptr, align 8
  %4 = alloca ptr, align 8
  %5 = alloca ptr, align 8
  store ptr %0, ptr %4, align 8, !tbaa !35
  store ptr %1, ptr %5, align 8, !tbaa !37
  %6 = load ptr, ptr %4, align 8
  %7 = load ptr, ptr %5, align 8, !tbaa !37
  %8 = call noundef zeroext i1 @_ZeqRK8rationali(ptr noundef nonnull align 8 dereferenceable(32) %7, i32 noundef 1)
  br i1 %8, label %9, label %10

9:                                                ; preds = %2
  store ptr %6, ptr %3, align 8
  br label %13

10:                                               ; preds = %2
  %11 = call noalias noundef ptr @_ZN6memory8allocateEm(i64 noundef 48)
  %12 = load ptr, ptr %5, align 8, !tbaa !37
  call void @_ZN3opt15model_based_opt7div_defC2EPNS0_3defERK8rational(ptr noundef nonnull align 8 dereferenceable(48) %11, ptr noundef %6, ptr noundef nonnull align 8 dereferenceable(32) %12)
  store ptr %11, ptr %3, align 8
  br label %13

13:                                               ; preds = %10, %9
  %14 = load ptr, ptr %3, align 8
  ret ptr %14
}