; Function Attrs: mustprogress uwtable
define hidden noundef ptr @_ZN3opt15model_based_opt3defdvERK8rational(ptr noundef nonnull align 4 dereferenceable(8) %0, ptr noundef nonnull align 8 dereferenceable(32) %1) local_unnamed_addr #3 align 2 {
  %3 = tail call noundef zeroext i1 @_ZeqRK8rationali(ptr noundef nonnull align 8 dereferenceable(32) %1, i32 noundef 1)
  br i1 %3, label %39, label %4

4:                                                ; preds = %2
  %5 = tail call noalias noundef ptr @_ZN6memory8allocateEm(i64 noundef 48)
  %6 = getelementptr inbounds nuw i8, ptr %5, i64 4
  store i32 0, ptr %6, align 4, !tbaa !38
  %7 = getelementptr inbounds nuw i8, ptr %5, i64 8
  store ptr %0, ptr %7, align 8, !tbaa !46
  %8 = getelementptr inbounds nuw i8, ptr %5, i64 16
  store i32 0, ptr %8, align 8, !tbaa !10
  %9 = getelementptr inbounds nuw i8, ptr %5, i64 20
  %10 = load i8, ptr %9, align 4
  %11 = and i8 %10, -4
  store i8 %11, ptr %9, align 4
  %12 = getelementptr inbounds nuw i8, ptr %5, i64 24
  store ptr null, ptr %12, align 8, !tbaa !3
  %13 = getelementptr inbounds nuw i8, ptr %5, i64 32
  store i32 1, ptr %13, align 8, !tbaa !10
  %14 = getelementptr inbounds nuw i8, ptr %5, i64 36
  %15 = load i8, ptr %14, align 4
  %16 = and i8 %15, -4
  store i8 %16, ptr %14, align 4
  %17 = getelementptr inbounds nuw i8, ptr %5, i64 40
  store ptr null, ptr %17, align 8, !tbaa !3
  %18 = load ptr, ptr @_ZN8rational13g_mpq_managerE, align 8, !tbaa !11
  %19 = getelementptr inbounds nuw i8, ptr %1, i64 4
  %20 = load i8, ptr %19, align 4
  %21 = and i8 %20, 1
  %22 = icmp eq i8 %21, 0
  br i1 %22, label %23, label %25

23:                                               ; preds = %4
  %24 = load i32, ptr %1, align 8, !tbaa !10
  store i32 %24, ptr %8, align 8, !tbaa !10
  store i8 %11, ptr %9, align 4
  br label %_ZN11mpq_managerILb1EE3setER3mpzRKS1_.exit.i.i.i

25:                                               ; preds = %4
  tail call void @_ZN11mpz_managerILb1EE7big_setER3mpzRKS1_(ptr noundef nonnull align 8 dereferenceable(728) %18, ptr noundef nonnull align 8 dereferenceable(32) %8, ptr noundef nonnull align 8 dereferenceable(32) %1)
  br label %_ZN11mpq_managerILb1EE3setER3mpzRKS1_.exit.i.i.i

_ZN11mpq_managerILb1EE3setER3mpzRKS1_.exit.i.i.i: ; preds = %25, %23
  %26 = getelementptr inbounds nuw i8, ptr %1, i64 16
  %27 = getelementptr inbounds nuw i8, ptr %1, i64 20
  %28 = load i8, ptr %27, align 4
  %29 = and i8 %28, 1
  %30 = icmp eq i8 %29, 0
  br i1 %30, label %31, label %35

31:                                               ; preds = %_ZN11mpq_managerILb1EE3setER3mpzRKS1_.exit.i.i.i
  %32 = load i32, ptr %26, align 8, !tbaa !10
  store i32 %32, ptr %13, align 8, !tbaa !10
  %33 = load i8, ptr %14, align 4
  %34 = and i8 %33, -2
  store i8 %34, ptr %14, align 4
  br label %_ZN3opt15model_based_opt7div_defC2EPNS0_3defERK8rational.exit

35:                                               ; preds = %_ZN11mpq_managerILb1EE3setER3mpzRKS1_.exit.i.i.i
  tail call void @_ZN11mpz_managerILb1EE7big_setER3mpzRKS1_(ptr noundef nonnull align 8 dereferenceable(728) %18, ptr noundef nonnull align 8 dereferenceable(16) %13, ptr noundef nonnull align 8 dereferenceable(16) %26)
  br label %_ZN3opt15model_based_opt7div_defC2EPNS0_3defERK8rational.exit

_ZN3opt15model_based_opt7div_defC2EPNS0_3defERK8rational.exit: ; preds = %31, %35
  store i32 2, ptr %5, align 8, !tbaa !41
  %36 = getelementptr inbounds nuw i8, ptr %0, i64 4
  %37 = load i32, ptr %36, align 4, !tbaa !38
  %38 = add i32 %37, 1
  store i32 %38, ptr %36, align 4, !tbaa !38
  br label %39

39:                                               ; preds = %2, %_ZN3opt15model_based_opt7div_defC2EPNS0_3defERK8rational.exit
  %.0 = phi ptr [ %5, %_ZN3opt15model_based_opt7div_defC2EPNS0_3defERK8rational.exit ], [ %0, %2 ]
  ret ptr %.0
}